target datalayout = "e-m:e-p270:32:32-p271:32:32-p272:64:64-i64:64-i128:128-f80:128-n8:16:32:64-S128"
target triple = "x86_64-pc-linux-gnu"

@.str = private unnamed_addr constant [33 x i8] c"\0AERROR - %s line %d failed with:\00", align 1
@.str.1 = private unnamed_addr constant [105 x i8] c"generated/home/dtcxzyw/WorkSpace/Projects/compilers/llvm-opt-benchmark/bench/wolfssl/wolfssl/tests/api.c\00", align 1
@.str.2 = private unnamed_addr constant [16 x i8] c"\0A    expected: \00", align 1
@stdout = external global ptr, align 8
@.str.3 = private unnamed_addr constant [9 x i8] c"%s == %s\00", align 1
@.str.6 = private unnamed_addr constant [16 x i8] c"\0A    result:   \00", align 1
@.str.7 = private unnamed_addr constant [9 x i8] c"%d != %d\00", align 1
@.str.8 = private unnamed_addr constant [3 x i8] c"\0A\0A\00", align 1
@.str.993 = private unnamed_addr constant [16 x i8] c"WOLFSSL_SUCCESS\00", align 1
@.str.2019 = private unnamed_addr constant [16 x i8] c"www.wolfssl.com\00", align 1
@.str.2020 = private unnamed_addr constant [70 x i8] c"wolfSSL_CTX_UseSNI(ctx, WOLFSSL_SNI_HOST_NAME, \22www.wolfssl.com\22, 15)\00", align 1

; Function Attrs: nounwind uwtable
define internal void @use_SNI_at_ctx(ptr noundef %0) #0 {
  %2 = alloca ptr, align 8
  %3 = alloca i32, align 4
  %4 = alloca i32, align 4
  store ptr %0, ptr %2, align 8, !tbaa !84
  br label %5

5:                                                ; preds = %1
  call void @llvm.lifetime.start.p0(i64 4, ptr %3) #14
  store i32 1, ptr %3, align 4, !tbaa !10
  call void @llvm.lifetime.start.p0(i64 4, ptr %4) #14
  %6 = load ptr, ptr %2, align 8, !tbaa !84
  %7 = call i32 @wolfSSL_CTX_UseSNI(ptr noundef %6, i8 noundef zeroext 0, ptr noundef @.str.2019, i16 noundef zeroext 15)
  store i32 %7, ptr %4, align 4, !tbaa !10
  %8 = load i32, ptr %3, align 4, !tbaa !10
  %9 = load i32, ptr %4, align 4, !tbaa !10
  %10 = icmp eq i32 %8, %9
  br i1 %10, label %28, label %11

11:                                               ; preds = %5
  br label %12

12:                                               ; preds = %11
  %13 = call i32 (ptr, ...) @printf(ptr noundef @.str, ptr noundef @.str.1, i32 noundef 11418)
  %14 = load ptr, ptr @stdout, align 8, !tbaa !22
  %15 = call i32 @fputs(ptr noundef @.str.2, ptr noundef %14)
  %16 = call i32 (ptr, ...) @printf(ptr noundef @.str.3, ptr noundef @.str.993, ptr noundef @.str.2020)
  %17 = load ptr, ptr @stdout, align 8, !tbaa !22
  %18 = call i32 @fputs(ptr noundef @.str.6, ptr noundef %17)
  %19 = load i32, ptr %3, align 4, !tbaa !10
  %20 = load i32, ptr %4, align 4, !tbaa !10
  %21 = call i32 (ptr, ...) @printf(ptr noundef @.str.7, i32 noundef %19, i32 noundef %20)
  %22 = load ptr, ptr @stdout, align 8, !tbaa !22
  %23 = call i32 @fputs(ptr noundef @.str.8, ptr noundef %22)
  %24 = load ptr, ptr @stdout, align 8, !tbaa !22
  %25 = call i32 @fflush(ptr noundef %24)
  call void @abort() #18
  unreachable

26:                                               ; No predecessors!
  br label %27

27:                                               ; preds = %26
  br label %28

28:                                               ; preds = %27, %5
  call void @llvm.lifetime.end.p0(i64 4, ptr %4) #14
  call void @llvm.lifetime.end.p0(i64 4, ptr %3) #14
  br label %29

29:                                               ; preds = %28
  ret void
}